; Function Attrs: nounwind uwtable
define dso_local noundef zeroext i1 @srun_job_suspend(ptr noundef readonly captures(none) %0, i16 noundef zeroext %1) local_unnamed_addr #0 {
  %3 = getelementptr inbounds nuw i8, ptr %0, i64 640
  %4 = load i16, ptr %3, align 8
  %.not = icmp eq i16 %4, 0
  br i1 %.not, label %36, label %5

5:                                                ; preds = %2
  %6 = getelementptr inbounds nuw i8, ptr %0, i64 32
  %7 = load ptr, ptr %6, align 8
  %.not15 = icmp eq ptr %7, null
  br i1 %.not15, label %36, label %8

8:                                                ; preds = %5
  %9 = getelementptr inbounds nuw i8, ptr %0, i64 856
  %10 = load ptr, ptr %9, align 8
  %.not16 = icmp eq ptr %10, null
  br i1 %.not16, label %36, label %11

11:                                               ; preds = %8
  %12 = tail call ptr @slurm_xcalloc(i64 noundef 1, i64 noundef 128, i1 noundef zeroext true, i1 noundef zeroext false, ptr noundef nonnull @.str, i32 noundef 499, ptr noundef nonnull @__func__.srun_job_suspend) #6
  %13 = load i16, ptr %3, align 8
  %14 = load ptr, ptr %9, align 8
  tail call void @slurm_set_addr(ptr noundef %12, i16 noundef zeroext %13, ptr noundef %14) #6
  %15 = tail call ptr @slurm_xcalloc(i64 noundef 1, i64 noundef 16, i1 noundef zeroext true, i1 noundef zeroext false, ptr noundef nonnull @.str, i32 noundef 501, ptr noundef nonnull @__func__.srun_job_suspend) #6
  %16 = getelementptr inbounds nuw i8, ptr %0, i64 392
  %17 = load i32, ptr %16, align 8
  %18 = getelementptr inbounds nuw i8, ptr %15, i64 4
  store i32 %17, ptr %18, align 4
  store i16 %1, ptr %15, align 8
  %19 = load ptr, ptr %6, align 8
  %20 = getelementptr inbounds nuw i8, ptr %0, i64 1096
  %21 = load i32, ptr %20, align 8
  %22 = getelementptr inbounds nuw i8, ptr %0, i64 908
  %23 = load i16, ptr %22, align 4
  %24 = tail call ptr @slurm_xcalloc(i64 noundef 1, i64 noundef 56, i1 noundef zeroext true, i1 noundef zeroext false, ptr noundef nonnull @.str, i32 noundef 61, ptr noundef nonnull @__func__._srun_agent_launch) #6
  store i32 1, ptr %24, align 8
  %25 = getelementptr inbounds nuw i8, ptr %24, i64 4
  store i16 0, ptr %25, align 4
  %26 = getelementptr inbounds nuw i8, ptr %24, i64 16
  store ptr %12, ptr %26, align 8
  %27 = tail call ptr @hostlist_create(ptr noundef %19) #6
  %28 = getelementptr inbounds nuw i8, ptr %24, i64 24
  store ptr %27, ptr %28, align 8
  %29 = getelementptr inbounds nuw i8, ptr %24, i64 36
  store i32 7008, ptr %29, align 4
  %30 = getelementptr inbounds nuw i8, ptr %24, i64 40
  store ptr %15, ptr %30, align 8
  tail call void @set_agent_arg_r_uid(ptr noundef nonnull %24, i32 noundef %21) #6
  %31 = tail call i16 @llvm.umin.i16(i16 %23, i16 11008)
  %32 = getelementptr inbounds nuw i8, ptr %24, i64 32
  store i16 %31, ptr %32, align 8
  %33 = load ptr, ptr @stepmgr_ops, align 8
  %34 = getelementptr inbounds nuw i8, ptr %33, i64 64
  %35 = load ptr, ptr %34, align 8
  tail call void %35(ptr noundef nonnull %24) #6
  br label %36

36:                                               ; preds = %11, %8, %5, %2
  %.0 = phi i1 [ true, %11 ], [ false, %8 ], [ false, %5 ], [ false, %2 ]
  ret i1 %.0
}